target datalayout = "e-m:e-p270:32:32-p271:32:32-p272:64:64-i64:64-i128:128-f80:128-n8:16:32:64-S128"
target triple = "x86_64-pc-linux-gnu"

%struct.b2Vec2 = type { float, float }
%struct.b2Filter = type { i64, i64, i32 }
%struct.b2Shape = type { i32, i32, i32, i32, i32, i32, float, float, float, float, float, i32, %struct.b2AABB, %struct.b2AABB, %struct.b2Vec2, i32, %struct.b2Filter, ptr, i32, %union.anon.0, i16, i8, i8, i8, i8 }
%struct.b2AABB = type { %struct.b2Vec2, %struct.b2Vec2 }
%union.anon.0 = type { %struct.b2Polygon }
%struct.b2Polygon = type { [8 x %struct.b2Vec2], [8 x %struct.b2Vec2], %struct.b2Vec2, float, i32 }
%struct.b2Circle = type { %struct.b2Vec2, float }
%struct.b2Capsule = type { %struct.b2Vec2, %struct.b2Vec2, float }
%struct.b2Segment = type { %struct.b2Vec2, %struct.b2Vec2 }
%struct.b2ChainSegment = type { %struct.b2Vec2, %struct.b2Segment, %struct.b2Vec2, i32 }

@b2Vec2_zero = internal constant %struct.b2Vec2 zeroinitializer, align 4

; Function Attrs: inlinehint nounwind uwtable
define internal <2 x float> @b2Lerp(<2 x float> %0, <2 x float> %1, float noundef %2) #5 {
  %4 = alloca %struct.b2Vec2, align 4
  %5 = alloca %struct.b2Vec2, align 4
  %6 = alloca %struct.b2Vec2, align 4
  %7 = alloca float, align 4
  store <2 x float> %0, ptr %5, align 4
  store <2 x float> %1, ptr %6, align 4
  store float %2, ptr %7, align 4, !tbaa !50
  %8 = getelementptr inbounds nuw %struct.b2Vec2, ptr %4, i32 0, i32 0
  %9 = load float, ptr %7, align 4, !tbaa !50
  %10 = fsub float 1.000000e+00, %9
  %11 = getelementptr inbounds nuw %struct.b2Vec2, ptr %5, i32 0, i32 0
  %12 = load float, ptr %11, align 4, !tbaa !55
  %13 = fmul float %10, %12
  %14 = load float, ptr %7, align 4, !tbaa !50
  %15 = getelementptr inbounds nuw %struct.b2Vec2, ptr %6, i32 0, i32 0
  %16 = load float, ptr %15, align 4, !tbaa !55
  %17 = fmul float %14, %16
  %18 = fadd float %13, %17
  store float %18, ptr %8, align 4, !tbaa !55
  %19 = getelementptr inbounds nuw %struct.b2Vec2, ptr %4, i32 0, i32 1
  %20 = load float, ptr %7, align 4, !tbaa !50
  %21 = fsub float 1.000000e+00, %20
  %22 = getelementptr inbounds nuw %struct.b2Vec2, ptr %5, i32 0, i32 1
  %23 = load float, ptr %22, align 4, !tbaa !56
  %24 = fmul float %21, %23
  %25 = load float, ptr %7, align 4, !tbaa !50
  %26 = getelementptr inbounds nuw %struct.b2Vec2, ptr %6, i32 0, i32 1
  %27 = load float, ptr %26, align 4, !tbaa !56
  %28 = fmul float %25, %27
  %29 = fadd float %24, %28
  store float %29, ptr %19, align 4, !tbaa !56
  %30 = load <2 x float>, ptr %4, align 4
  ret <2 x float> %30
}

; Function Attrs: nounwind uwtable
define hidden <2 x float> @b2GetShapeCentroid(ptr noundef %0) #3 {
  %2 = alloca %struct.b2Vec2, align 4
  %3 = alloca ptr, align 8
  store ptr %0, ptr %3, align 8, !tbaa !34
  %4 = load ptr, ptr %3, align 8, !tbaa !34
  %5 = getelementptr inbounds nuw %struct.b2Shape, ptr %4, i32 0, i32 5
  %6 = load i32, ptr %5, align 4, !tbaa !201
  switch i32 %6, label %47 [
    i32 1, label %7
    i32 0, label %17
    i32 3, label %21
    i32 2, label %25
    i32 4, label %35
  ]

7:                                                ; preds = %1
  %8 = load ptr, ptr %3, align 8, !tbaa !34
  %9 = getelementptr inbounds nuw %struct.b2Shape, ptr %8, i32 0, i32 19
  %10 = getelementptr inbounds nuw %struct.b2Capsule, ptr %9, i32 0, i32 0
  %11 = load ptr, ptr %3, align 8, !tbaa !34
  %12 = getelementptr inbounds nuw %struct.b2Shape, ptr %11, i32 0, i32 19
  %13 = getelementptr inbounds nuw %struct.b2Capsule, ptr %12, i32 0, i32 1
  %14 = load <2 x float>, ptr %10, align 4
  %15 = load <2 x float>, ptr %13, align 4
  %16 = call <2 x float> @b2Lerp(<2 x float> %14, <2 x float> %15, float noundef 5.000000e-01)
  store <2 x float> %16, ptr %2, align 4
  br label %48

17:                                               ; preds = %1
  %18 = load ptr, ptr %3, align 8, !tbaa !34
  %19 = getelementptr inbounds nuw %struct.b2Shape, ptr %18, i32 0, i32 19
  %20 = getelementptr inbounds nuw %struct.b2Circle, ptr %19, i32 0, i32 0
  call void @llvm.memcpy.p0.p0.i64(ptr align 4 %2, ptr align 4 %20, i64 8, i1 false), !tbaa.struct !173
  br label %48

21:                                               ; preds = %1
  %22 = load ptr, ptr %3, align 8, !tbaa !34
  %23 = getelementptr inbounds nuw %struct.b2Shape, ptr %22, i32 0, i32 19
  %24 = getelementptr inbounds nuw %struct.b2Polygon, ptr %23, i32 0, i32 2
  call void @llvm.memcpy.p0.p0.i64(ptr align 4 %2, ptr align 4 %24, i64 8, i1 false), !tbaa.struct !173
  br label %48

25:                                               ; preds = %1
  %26 = load ptr, ptr %3, align 8, !tbaa !34
  %27 = getelementptr inbounds nuw %struct.b2Shape, ptr %26, i32 0, i32 19
  %28 = getelementptr inbounds nuw %struct.b2Segment, ptr %27, i32 0, i32 0
  %29 = load ptr, ptr %3, align 8, !tbaa !34
  %30 = getelementptr inbounds nuw %struct.b2Shape, ptr %29, i32 0, i32 19
  %31 = getelementptr inbounds nuw %struct.b2Segment, ptr %30, i32 0, i32 1
  %32 = load <2 x float>, ptr %28, align 4
  %33 = load <2 x float>, ptr %31, align 4
  %34 = call <2 x float> @b2Lerp(<2 x float> %32, <2 x float> %33, float noundef 5.000000e-01)
  store <2 x float> %34, ptr %2, align 4
  br label %48

35:                                               ; preds = %1
  %36 = load ptr, ptr %3, align 8, !tbaa !34
  %37 = getelementptr inbounds nuw %struct.b2Shape, ptr %36, i32 0, i32 19
  %38 = getelementptr inbounds nuw %struct.b2ChainSegment, ptr %37, i32 0, i32 1
  %39 = getelementptr inbounds nuw %struct.b2Segment, ptr %38, i32 0, i32 0
  %40 = load ptr, ptr %3, align 8, !tbaa !34
  %41 = getelementptr inbounds nuw %struct.b2Shape, ptr %40, i32 0, i32 19
  %42 = getelementptr inbounds nuw %struct.b2ChainSegment, ptr %41, i32 0, i32 1
  %43 = getelementptr inbounds nuw %struct.b2Segment, ptr %42, i32 0, i32 1
  %44 = load <2 x float>, ptr %39, align 4
  %45 = load <2 x float>, ptr %43, align 4
  %46 = call <2 x float> @b2Lerp(<2 x float> %44, <2 x float> %45, float noundef 5.000000e-01)
  store <2 x float> %46, ptr %2, align 4
  br label %48

47:                                               ; preds = %1
  call void @llvm.memcpy.p0.p0.i64(ptr align 4 %2, ptr align 4 @b2Vec2_zero, i64 8, i1 false), !tbaa.struct !173
  br label %48

48:                                               ; preds = %47, %35, %25, %21, %17, %7
  %49 = load <2 x float>, ptr %2, align 4
  ret <2 x float> %49
}