; Function Attrs: mustprogress nofree norecurse nosync nounwind willreturn memory(argmem: read) uwtable
define hidden <2 x float> @b2GetShapeCentroid(ptr noundef readonly captures(none) %0) local_unnamed_addr #6 {
  %2 = getelementptr inbounds nuw i8, ptr %0, i64 20
  %3 = load i32, ptr %2, align 4, !tbaa !171
  switch i32 %3, label %41 [
    i32 1, label %4
    i32 0, label %15
    i32 3, label %17
    i32 2, label %19
    i32 4, label %30
  ]

4:                                                ; preds = %1
  %5 = getelementptr inbounds nuw i8, ptr %0, i64 132
  %6 = getelementptr inbounds nuw i8, ptr %0, i64 140
  %7 = load <2 x float>, ptr %5, align 4
  %8 = load <2 x float>, ptr %6, align 4
  %.sroa.04.0.vec.extract.i = extractelement <2 x float> %7, i64 0
  %9 = fmul float %.sroa.04.0.vec.extract.i, 5.000000e-01
  %.sroa.0.0.vec.extract.i = extractelement <2 x float> %8, i64 0
  %10 = fmul float %.sroa.0.0.vec.extract.i, 5.000000e-01
  %11 = fadd float %9, %10
  %.sroa.05.0.vec.insert.i = insertelement <2 x float> poison, float %11, i64 0
  %.sroa.04.4.vec.extract.i = extractelement <2 x float> %7, i64 1
  %12 = fmul float %.sroa.04.4.vec.extract.i, 5.000000e-01
  %.sroa.0.4.vec.extract.i = extractelement <2 x float> %8, i64 1
  %13 = fmul float %.sroa.0.4.vec.extract.i, 5.000000e-01
  %14 = fadd float %12, %13
  %.sroa.05.4.vec.insert.i = insertelement <2 x float> %.sroa.05.0.vec.insert.i, float %14, i64 1
  br label %41

15:                                               ; preds = %1
  %16 = getelementptr inbounds nuw i8, ptr %0, i64 132
  %.sroa.0.0.copyload = load <2 x float>, ptr %16, align 4
  br label %41

17:                                               ; preds = %1
  %18 = getelementptr inbounds nuw i8, ptr %0, i64 260
  %.sroa.0.0.copyload9 = load <2 x float>, ptr %18, align 4
  br label %41

19:                                               ; preds = %1
  %20 = getelementptr inbounds nuw i8, ptr %0, i64 132
  %21 = getelementptr inbounds nuw i8, ptr %0, i64 140
  %22 = load <2 x float>, ptr %20, align 4
  %23 = load <2 x float>, ptr %21, align 4
  %.sroa.04.0.vec.extract.i11 = extractelement <2 x float> %22, i64 0
  %24 = fmul float %.sroa.04.0.vec.extract.i11, 5.000000e-01
  %.sroa.0.0.vec.extract.i12 = extractelement <2 x float> %23, i64 0
  %25 = fmul float %.sroa.0.0.vec.extract.i12, 5.000000e-01
  %26 = fadd float %24, %25
  %.sroa.05.0.vec.insert.i13 = insertelement <2 x float> poison, float %26, i64 0
  %.sroa.04.4.vec.extract.i14 = extractelement <2 x float> %22, i64 1
  %27 = fmul float %.sroa.04.4.vec.extract.i14, 5.000000e-01
  %.sroa.0.4.vec.extract.i15 = extractelement <2 x float> %23, i64 1
  %28 = fmul float %.sroa.0.4.vec.extract.i15, 5.000000e-01
  %29 = fadd float %27, %28
  %.sroa.05.4.vec.insert.i16 = insertelement <2 x float> %.sroa.05.0.vec.insert.i13, float %29, i64 1
  br label %41

30:                                               ; preds = %1
  %31 = getelementptr inbounds nuw i8, ptr %0, i64 140
  %32 = getelementptr inbounds nuw i8, ptr %0, i64 148
  %33 = load <2 x float>, ptr %31, align 4
  %34 = load <2 x float>, ptr %32, align 4
  %.sroa.04.0.vec.extract.i17 = extractelement <2 x float> %33, i64 0
  %35 = fmul float %.sroa.04.0.vec.extract.i17, 5.000000e-01
  %.sroa.0.0.vec.extract.i18 = extractelement <2 x float> %34, i64 0
  %36 = fmul float %.sroa.0.0.vec.extract.i18, 5.000000e-01
  %37 = fadd float %35, %36
  %.sroa.05.0.vec.insert.i19 = insertelement <2 x float> poison, float %37, i64 0
  %.sroa.04.4.vec.extract.i20 = extractelement <2 x float> %33, i64 1
  %38 = fmul float %.sroa.04.4.vec.extract.i20, 5.000000e-01
  %.sroa.0.4.vec.extract.i21 = extractelement <2 x float> %34, i64 1
  %39 = fmul float %.sroa.0.4.vec.extract.i21, 5.000000e-01
  %40 = fadd float %38, %39
  %.sroa.05.4.vec.insert.i22 = insertelement <2 x float> %.sroa.05.0.vec.insert.i19, float %40, i64 1
  br label %41

41:                                               ; preds = %1, %30, %19, %17, %15, %4
  %.sroa.0.0 = phi <2 x float> [ %.sroa.05.4.vec.insert.i22, %30 ], [ %.sroa.05.4.vec.insert.i16, %19 ], [ %.sroa.0.0.copyload9, %17 ], [ %.sroa.0.0.copyload, %15 ], [ %.sroa.05.4.vec.insert.i, %4 ], [ zeroinitializer, %1 ]
  ret <2 x float> %.sroa.0.0
}